; Function Attrs: mustprogress uwtable
define hidden noundef zeroext i1 @_ZN13basic_factory15get_some_valuesEP4sortR7obj_refI4expr11ast_managerES6_(ptr noundef nonnull readonly align 8 captures(none) dereferenceable(24) %0, ptr noundef readnone captures(address) %1, ptr noundef nonnull align 8 captures(none) dereferenceable(16) %2, ptr noundef nonnull align 8 captures(none) dereferenceable(16) %3) unnamed_addr #5 align 2 {
  %5 = getelementptr inbounds nuw i8, ptr %0, i64 8
  %6 = load ptr, ptr %5, align 8, !tbaa !15
  %7 = getelementptr inbounds nuw i8, ptr %6, i64 840
  %8 = load ptr, ptr %7, align 8, !tbaa !16
  %9 = icmp eq ptr %1, %8
  br i1 %9, label %10, label %42

10:                                               ; preds = %4
  %11 = getelementptr inbounds nuw i8, ptr %6, i64 864
  %12 = load ptr, ptr %11, align 8, !tbaa !84
  %.not.i = icmp eq ptr %12, null
  br i1 %.not.i, label %16, label %_ZN11ast_manager7inc_refEP3ast.exit.i

_ZN11ast_manager7inc_refEP3ast.exit.i:            ; preds = %10
  %13 = getelementptr inbounds nuw i8, ptr %12, i64 8
  %14 = load i32, ptr %13, align 4, !tbaa !85
  %15 = add i32 %14, 1
  store i32 %15, ptr %13, align 4, !tbaa !85
  br label %16

16:                                               ; preds = %_ZN11ast_manager7inc_refEP3ast.exit.i, %10
  %17 = load ptr, ptr %2, align 8, !tbaa !87
  %.not.i4.i = icmp eq ptr %17, null
  br i1 %.not.i4.i, label %_ZN7obj_refI4expr11ast_managerEaSEPS0_.exit, label %18

18:                                               ; preds = %16
  %19 = getelementptr inbounds nuw i8, ptr %2, i64 8
  %20 = load ptr, ptr %19, align 8, !tbaa !90
  %21 = getelementptr inbounds nuw i8, ptr %17, i64 8
  %22 = load i32, ptr %21, align 4, !tbaa !85
  %23 = add i32 %22, -1
  store i32 %23, ptr %21, align 4, !tbaa !85
  %24 = icmp eq i32 %23, 0
  br i1 %24, label %25, label %_ZN7obj_refI4expr11ast_managerEaSEPS0_.exit

25:                                               ; preds = %18
  tail call void @_ZN11ast_manager11delete_nodeEP3ast(ptr noundef nonnull align 8 dereferenceable(976) %20, ptr noundef nonnull %17)
  %.pre = load ptr, ptr %5, align 8, !tbaa !15
  br label %_ZN7obj_refI4expr11ast_managerEaSEPS0_.exit

_ZN7obj_refI4expr11ast_managerEaSEPS0_.exit:      ; preds = %16, %18, %25
  %26 = phi ptr [ %6, %16 ], [ %6, %18 ], [ %.pre, %25 ]
  store ptr %12, ptr %2, align 8, !tbaa !87
  %27 = getelementptr inbounds nuw i8, ptr %26, i64 856
  %28 = load ptr, ptr %27, align 8, !tbaa !91
  %.not.i5 = icmp eq ptr %28, null
  br i1 %.not.i5, label %32, label %_ZN11ast_manager7inc_refEP3ast.exit.i6

_ZN11ast_manager7inc_refEP3ast.exit.i6:           ; preds = %_ZN7obj_refI4expr11ast_managerEaSEPS0_.exit
  %29 = getelementptr inbounds nuw i8, ptr %28, i64 8
  %30 = load i32, ptr %29, align 4, !tbaa !85
  %31 = add i32 %30, 1
  store i32 %31, ptr %29, align 4, !tbaa !85
  br label %32

32:                                               ; preds = %_ZN11ast_manager7inc_refEP3ast.exit.i6, %_ZN7obj_refI4expr11ast_managerEaSEPS0_.exit
  %33 = load ptr, ptr %3, align 8, !tbaa !87
  %.not.i4.i7 = icmp eq ptr %33, null
  br i1 %.not.i4.i7, label %_ZN7obj_refI4expr11ast_managerEaSEPS0_.exit8, label %34

34:                                               ; preds = %32
  %35 = getelementptr inbounds nuw i8, ptr %3, i64 8
  %36 = load ptr, ptr %35, align 8, !tbaa !90
  %37 = getelementptr inbounds nuw i8, ptr %33, i64 8
  %38 = load i32, ptr %37, align 4, !tbaa !85
  %39 = add i32 %38, -1
  store i32 %39, ptr %37, align 4, !tbaa !85
  %40 = icmp eq i32 %39, 0
  br i1 %40, label %41, label %_ZN7obj_refI4expr11ast_managerEaSEPS0_.exit8

41:                                               ; preds = %34
  tail call void @_ZN11ast_manager11delete_nodeEP3ast(ptr noundef nonnull align 8 dereferenceable(976) %36, ptr noundef nonnull %33)
  br label %_ZN7obj_refI4expr11ast_managerEaSEPS0_.exit8

_ZN7obj_refI4expr11ast_managerEaSEPS0_.exit8:     ; preds = %32, %34, %41
  store ptr %28, ptr %3, align 8, !tbaa !87
  br label %42

42:                                               ; preds = %4, %_ZN7obj_refI4expr11ast_managerEaSEPS0_.exit8
  ret i1 %9
}